; Function Attrs: mustprogress nofree norecurse nosync nounwind willreturn memory(argmem: write) uwtable
define hidden range(i32 0, 2) i32 @VP8InitIoInternal(ptr noundef writeonly captures(address_is_null) %0, i32 noundef %1) local_unnamed_addr #1 {
  %.mask = and i32 %1, -256
  %.not = icmp eq i32 %.mask, 512
  br i1 %.not, label %3, label %5

3:                                                ; preds = %2
  %.not4 = icmp eq ptr %0, null
  br i1 %.not4, label %5, label %4

4:                                                ; preds = %3
  tail call void @llvm.memset.p0.i64(ptr noundef nonnull align 8 dereferenceable(160) %0, i8 0, i64 160, i1 false)
  br label %5

5:                                                ; preds = %3, %4, %2
  %.0 = phi i32 [ 0, %2 ], [ 1, %4 ], [ 1, %3 ]
  ret i32 %.0
}